; Function Attrs: null_pointer_is_valid sspstrong uwtable
define internal fastcc range(i32 16, 21) i32 @filtmode(ptr noundef %0, i32 noundef range(i32 12, 17) %1, ptr noundef %2) unnamed_addr #0 {
  %4 = load i32, ptr @hf_gryphon_filtmode, align 4
  %5 = tail call ptr @proto_tree_add_item(ptr noundef %2, i32 noundef %4, ptr noundef %0, i32 noundef %1, i32 noundef 1, i32 noundef 0)
  %6 = load i32, ptr @hf_gryphon_reserved, align 4
  %7 = add nuw nsw i32 %1, 1
  %8 = tail call ptr @proto_tree_add_item(ptr noundef %2, i32 noundef %6, ptr noundef %0, i32 noundef %7, i32 noundef 3, i32 noundef 0)
  %9 = add nuw nsw i32 %1, 4
  ret i32 %9
}